(dp0
Vengine
p1
S'pdflatex'
p2
sVpackages
p3
c__builtin__
set
p4
((lp5
Vhyperref
p6
aVverbatim
p7
aVepsfig
p8
aVamsmath
p9
aVcolor
p10
aVamsthm
p11
aVparalist
p12
aVamscd
p13
aVgraphicx
p14
aVsubcaption
p15
aVamssymb
p16
atp17
Rp18
sVfiles_with_guttermarks
p19
g4
((lp20
V/Users/Gino/digit_recog/p50-report/p50-report.tex
p21
aS'p50-report.tex'
p22
atp23
Rp24
sVsynctex
p25
I01
s.