(dp0
Vengine
p1
S'pdflatex'
p2
sVpackages
p3
c__builtin__
set
p4
((lp5
Vhyperref
p6
aVverbatim
p7
aVepsfig
p8
aVbooktabs
p9
aVamsmath
p10
aVmultirow
p11
aVcolor
p12
aVamsthm
p13
aVparalist
p14
aVamsfonts
p15
aVamscd
p16
aVgraphicx
p17
aVsubcaption
p18
aVamssymb
p19
atp20
Rp21
sVfiles_with_guttermarks
p22
g4
((lp23
V/Users/Gino/digit_recog/p50-report/p50-report.tex
p24
aS'p50-report.tex'
p25
aV/Users/Gino/digit_recog/p50-report/./p50-report.tex
p26
atp27
Rp28
sVsynctex
p29
I01
s.